target datalayout = "e-m:e-p270:32:32-p271:32:32-p272:64:64-i64:64-i128:128-f80:128-n8:16:32:64-S128"
target triple = "x86_64-pc-linux-gnu"

%"struct.faiss::VectorTransform" = type <{ ptr, i32, i32, i8, [7 x i8] }>
%"struct.faiss::LinearTransform" = type <{ %"struct.faiss::VectorTransform.base", i8, i8, [5 x i8], %"class.std::vector", %"class.std::vector", i8, [7 x i8] }>
%"struct.faiss::VectorTransform.base" = type <{ ptr, i32, i32, i8 }>
%"class.std::vector" = type { %"struct.std::_Vector_base" }
%"struct.std::_Vector_base" = type { %"struct.std::_Vector_base<float, std::allocator<float>>::_Vector_impl" }
%"struct.std::_Vector_base<float, std::allocator<float>>::_Vector_impl" = type { %"struct.std::_Vector_base<float, std::allocator<float>>::_Vector_impl_data" }
%"struct.std::_Vector_base<float, std::allocator<float>>::_Vector_impl_data" = type { ptr, ptr, ptr }

; Function Attrs: mustprogress nounwind uwtable
define linkonce_odr void @_ZNSt12_Destroy_auxILb1EE9__destroyIPfEEvT_S3_(ptr noundef %0, ptr noundef %1) #0 comdat align 2 {
  %3 = alloca ptr, align 8
  %4 = alloca ptr, align 8
  store ptr %0, ptr %3, align 8, !tbaa !11
  store ptr %1, ptr %4, align 8, !tbaa !11
  ret void
}

; Function Attrs: inlinehint mustprogress uwtable
define linkonce_odr void @_ZSt8_DestroyIPfEvT_S1_(ptr noundef %0, ptr noundef %1) #9 comdat {
  %3 = alloca ptr, align 8
  %4 = alloca ptr, align 8
  store ptr %0, ptr %3, align 8, !tbaa !11
  store ptr %1, ptr %4, align 8, !tbaa !11
  %5 = load ptr, ptr %3, align 8, !tbaa !11
  %6 = load ptr, ptr %4, align 8, !tbaa !11
  call void @_ZNSt12_Destroy_auxILb1EE9__destroyIPfEEvT_S3_(ptr noundef %5, ptr noundef %6)
  ret void
}

; Function Attrs: noinline noreturn nounwind uwtable
define linkonce_odr hidden void @__clang_call_terminate(ptr noundef %0) #11 comdat {
  %2 = call ptr @__cxa_begin_catch(ptr %0) #19
  call void @_ZSt9terminatev() #21
  unreachable
}

; Function Attrs: inlinehint mustprogress uwtable
define linkonce_odr void @_ZSt8_DestroyIPffEvT_S1_RSaIT0_E(ptr noundef %0, ptr noundef %1, ptr noundef nonnull align 1 dereferenceable(1) %2) #9 comdat {
  %4 = alloca ptr, align 8
  %5 = alloca ptr, align 8
  %6 = alloca ptr, align 8
  store ptr %0, ptr %4, align 8, !tbaa !11
  store ptr %1, ptr %5, align 8, !tbaa !11
  store ptr %2, ptr %6, align 8, !tbaa !185
  %7 = load ptr, ptr %4, align 8, !tbaa !11
  %8 = load ptr, ptr %5, align 8, !tbaa !11
  call void @_ZSt8_DestroyIPfEvT_S1_(ptr noundef %7, ptr noundef %8)
  ret void
}

; Function Attrs: mustprogress nounwind uwtable
define linkonce_odr noundef nonnull align 1 dereferenceable(1) ptr @_ZNSt12_Vector_baseIfSaIfEE19_M_get_Tp_allocatorEv(ptr noundef nonnull align 8 dereferenceable(24) %0) #0 comdat align 2 {
  %2 = alloca ptr, align 8
  store ptr %0, ptr %2, align 8, !tbaa !171
  %3 = load ptr, ptr %2, align 8
  %4 = getelementptr inbounds nuw %"struct.std::_Vector_base", ptr %3, i32 0, i32 0
  ret ptr %4
}

; Function Attrs: mustprogress nounwind uwtable
define linkonce_odr noundef ptr @_ZNKSt6vectorIfSaIfEE11_M_data_ptrIfEEPT_S4_(ptr noundef nonnull align 8 dereferenceable(24) %0, ptr noundef %1) #0 comdat align 2 {
  %3 = alloca ptr, align 8
  %4 = alloca ptr, align 8
  store ptr %0, ptr %3, align 8, !tbaa !169
  store ptr %1, ptr %4, align 8, !tbaa !11
  %5 = load ptr, ptr %4, align 8, !tbaa !11
  ret ptr %5
}

; Function Attrs: mustprogress nounwind uwtable
define linkonce_odr void @_ZNSt6vectorIfSaIfEE15_M_erase_at_endEPf(ptr noundef nonnull align 8 dereferenceable(24) %0, ptr noundef %1) #0 comdat align 2 personality ptr @__gxx_personality_v0 {
  %3 = alloca ptr, align 8
  %4 = alloca ptr, align 8
  %5 = alloca i64, align 8
  store ptr %0, ptr %3, align 8, !tbaa !169
  store ptr %1, ptr %4, align 8, !tbaa !11
  %6 = load ptr, ptr %3, align 8
  call void @llvm.lifetime.start.p0(i64 8, ptr %5) #19
  %7 = getelementptr inbounds nuw %"struct.std::_Vector_base", ptr %6, i32 0, i32 0
  %8 = getelementptr inbounds nuw %"struct.std::_Vector_base<float, std::allocator<float>>::_Vector_impl_data", ptr %7, i32 0, i32 1
  %9 = load ptr, ptr %8, align 8, !tbaa !177
  %10 = load ptr, ptr %4, align 8, !tbaa !11
  %11 = ptrtoint ptr %9 to i64
  %12 = ptrtoint ptr %10 to i64
  %13 = sub i64 %11, %12
  %14 = sdiv exact i64 %13, 4
  store i64 %14, ptr %5, align 8, !tbaa !9
  %15 = load i64, ptr %5, align 8, !tbaa !9
  %16 = icmp ne i64 %15, 0
  br i1 %16, label %17, label %27

17:                                               ; preds = %2
  %18 = load ptr, ptr %4, align 8, !tbaa !11
  %19 = getelementptr inbounds nuw %"struct.std::_Vector_base", ptr %6, i32 0, i32 0
  %20 = getelementptr inbounds nuw %"struct.std::_Vector_base<float, std::allocator<float>>::_Vector_impl_data", ptr %19, i32 0, i32 1
  %21 = load ptr, ptr %20, align 8, !tbaa !177
  %22 = call noundef nonnull align 1 dereferenceable(1) ptr @_ZNSt12_Vector_baseIfSaIfEE19_M_get_Tp_allocatorEv(ptr noundef nonnull align 8 dereferenceable(24) %6) #19
  invoke void @_ZSt8_DestroyIPffEvT_S1_RSaIT0_E(ptr noundef %18, ptr noundef %21, ptr noundef nonnull align 1 dereferenceable(1) %22)
          to label %23 unwind label %28

23:                                               ; preds = %17
  %24 = load ptr, ptr %4, align 8, !tbaa !11
  %25 = getelementptr inbounds nuw %"struct.std::_Vector_base", ptr %6, i32 0, i32 0
  %26 = getelementptr inbounds nuw %"struct.std::_Vector_base<float, std::allocator<float>>::_Vector_impl_data", ptr %25, i32 0, i32 1
  store ptr %24, ptr %26, align 8, !tbaa !177
  br label %27

27:                                               ; preds = %23, %2
  call void @llvm.lifetime.end.p0(i64 8, ptr %5) #19
  ret void

28:                                               ; preds = %17
  %29 = landingpad { ptr, i32 }
          catch ptr null
  %30 = extractvalue { ptr, i32 } %29, 0
  call void @__clang_call_terminate(ptr %30) #21
  unreachable
}

; Function Attrs: mustprogress nounwind uwtable
define linkonce_odr noundef i64 @_ZNKSt6vectorIfSaIfEE4sizeEv(ptr noundef nonnull align 8 dereferenceable(24) %0) #0 comdat align 2 {
  %2 = alloca ptr, align 8
  store ptr %0, ptr %2, align 8, !tbaa !169
  %3 = load ptr, ptr %2, align 8
  %4 = getelementptr inbounds nuw %"struct.std::_Vector_base", ptr %3, i32 0, i32 0
  %5 = getelementptr inbounds nuw %"struct.std::_Vector_base<float, std::allocator<float>>::_Vector_impl_data", ptr %4, i32 0, i32 1
  %6 = load ptr, ptr %5, align 8, !tbaa !177
  %7 = getelementptr inbounds nuw %"struct.std::_Vector_base", ptr %3, i32 0, i32 0
  %8 = getelementptr inbounds nuw %"struct.std::_Vector_base<float, std::allocator<float>>::_Vector_impl_data", ptr %7, i32 0, i32 0
  %9 = load ptr, ptr %8, align 8, !tbaa !178
  %10 = ptrtoint ptr %6 to i64
  %11 = ptrtoint ptr %9 to i64
  %12 = sub i64 %10, %11
  %13 = sdiv exact i64 %12, 4
  ret i64 %13
}

; Function Attrs: mustprogress nounwind uwtable
define linkonce_odr noundef ptr @_ZNSt6vectorIfSaIfEE4dataEv(ptr noundef nonnull align 8 dereferenceable(24) %0) #0 comdat align 2 {
  %2 = alloca ptr, align 8
  store ptr %0, ptr %2, align 8, !tbaa !169
  %3 = load ptr, ptr %2, align 8
  %4 = getelementptr inbounds nuw %"struct.std::_Vector_base", ptr %3, i32 0, i32 0
  %5 = getelementptr inbounds nuw %"struct.std::_Vector_base<float, std::allocator<float>>::_Vector_impl_data", ptr %4, i32 0, i32 0
  %6 = load ptr, ptr %5, align 8, !tbaa !178
  %7 = call noundef ptr @_ZNKSt6vectorIfSaIfEE11_M_data_ptrIfEEPT_S4_(ptr noundef nonnull align 8 dereferenceable(24) %3, ptr noundef %6) #19
  ret ptr %7
}

; Function Attrs: mustprogress uwtable
define linkonce_odr void @_ZNSt6vectorIfSaIfEE6resizeEm(ptr noundef nonnull align 8 dereferenceable(24) %0, i64 noundef %1) #1 comdat align 2 {
  %3 = alloca ptr, align 8
  %4 = alloca i64, align 8
  store ptr %0, ptr %3, align 8, !tbaa !169
  store i64 %1, ptr %4, align 8, !tbaa !9
  %5 = load ptr, ptr %3, align 8
  %6 = load i64, ptr %4, align 8, !tbaa !9
  %7 = call noundef i64 @_ZNKSt6vectorIfSaIfEE4sizeEv(ptr noundef nonnull align 8 dereferenceable(24) %5) #19
  %8 = icmp ugt i64 %6, %7
  br i1 %8, label %9, label %13

9:                                                ; preds = %2
  %10 = load i64, ptr %4, align 8, !tbaa !9
  %11 = call noundef i64 @_ZNKSt6vectorIfSaIfEE4sizeEv(ptr noundef nonnull align 8 dereferenceable(24) %5) #19
  %12 = sub i64 %10, %11
  call void @_ZNSt6vectorIfSaIfEE17_M_default_appendEm(ptr noundef nonnull align 8 dereferenceable(24) %5, i64 noundef %12)
  br label %24

13:                                               ; preds = %2
  %14 = load i64, ptr %4, align 8, !tbaa !9
  %15 = call noundef i64 @_ZNKSt6vectorIfSaIfEE4sizeEv(ptr noundef nonnull align 8 dereferenceable(24) %5) #19
  %16 = icmp ult i64 %14, %15
  br i1 %16, label %17, label %23

17:                                               ; preds = %13
  %18 = getelementptr inbounds nuw %"struct.std::_Vector_base", ptr %5, i32 0, i32 0
  %19 = getelementptr inbounds nuw %"struct.std::_Vector_base<float, std::allocator<float>>::_Vector_impl_data", ptr %18, i32 0, i32 0
  %20 = load ptr, ptr %19, align 8, !tbaa !178
  %21 = load i64, ptr %4, align 8, !tbaa !9
  %22 = getelementptr inbounds nuw float, ptr %20, i64 %21
  call void @_ZNSt6vectorIfSaIfEE15_M_erase_at_endEPf(ptr noundef nonnull align 8 dereferenceable(24) %5, ptr noundef %22) #19
  br label %23

23:                                               ; preds = %17, %13
  br label %24

24:                                               ; preds = %23, %9
  ret void
}

; Function Attrs: mustprogress uwtable
define void @_ZN5faiss20RandomRotationMatrix4initEi(ptr noundef nonnull align 8 dereferenceable(73) %0, i32 noundef %1) #1 align 2 {
  %3 = alloca ptr, align 8
  %4 = alloca i32, align 4
  %5 = alloca ptr, align 8
  %6 = alloca ptr, align 8
  %7 = alloca i32, align 4
  %8 = alloca i32, align 4
  store ptr %0, ptr %3, align 8, !tbaa !36
  store i32 %1, ptr %4, align 4, !tbaa !21
  %9 = load ptr, ptr %3, align 8
  %10 = getelementptr inbounds nuw %"struct.faiss::VectorTransform", ptr %9, i32 0, i32 2
  %11 = load i32, ptr %10, align 4, !tbaa !28
  %12 = getelementptr inbounds nuw %"struct.faiss::VectorTransform", ptr %9, i32 0, i32 1
  %13 = load i32, ptr %12, align 8, !tbaa !34
  %14 = icmp sle i32 %11, %13
  br i1 %14, label %15, label %39

15:                                               ; preds = %2
  %16 = getelementptr inbounds nuw %"struct.faiss::LinearTransform", ptr %9, i32 0, i32 4
  %17 = getelementptr inbounds nuw %"struct.faiss::VectorTransform", ptr %9, i32 0, i32 2
  %18 = load i32, ptr %17, align 4, !tbaa !28
  %19 = getelementptr inbounds nuw %"struct.faiss::VectorTransform", ptr %9, i32 0, i32 1
  %20 = load i32, ptr %19, align 8, !tbaa !34
  %21 = mul nsw i32 %18, %20
  %22 = sext i32 %21 to i64
  call void @_ZNSt6vectorIfSaIfEE6resizeEm(ptr noundef nonnull align 8 dereferenceable(24) %16, i64 noundef %22)
  call void @llvm.lifetime.start.p0(i64 8, ptr %5) #19
  %23 = getelementptr inbounds nuw %"struct.faiss::LinearTransform", ptr %9, i32 0, i32 4
  %24 = call noundef ptr @_ZNSt6vectorIfSaIfEE4dataEv(ptr noundef nonnull align 8 dereferenceable(24) %23) #19
  store ptr %24, ptr %5, align 8, !tbaa !11
  %25 = load ptr, ptr %5, align 8, !tbaa !11
  %26 = getelementptr inbounds nuw %"struct.faiss::VectorTransform", ptr %9, i32 0, i32 2
  %27 = load i32, ptr %26, align 4, !tbaa !28
  %28 = getelementptr inbounds nuw %"struct.faiss::VectorTransform", ptr %9, i32 0, i32 1
  %29 = load i32, ptr %28, align 8, !tbaa !34
  %30 = mul nsw i32 %27, %29
  %31 = sext i32 %30 to i64
  %32 = load i32, ptr %4, align 4, !tbaa !21
  %33 = sext i32 %32 to i64
  call void @_ZN5faiss11float_randnEPfml(ptr noundef %25, i64 noundef %31, i64 noundef %33)
  %34 = getelementptr inbounds nuw %"struct.faiss::VectorTransform", ptr %9, i32 0, i32 1
  %35 = load i32, ptr %34, align 8, !tbaa !34
  %36 = getelementptr inbounds nuw %"struct.faiss::VectorTransform", ptr %9, i32 0, i32 2
  %37 = load i32, ptr %36, align 4, !tbaa !28
  %38 = load ptr, ptr %5, align 8, !tbaa !11
  call void @_ZN5faiss9matrix_qrEiiPf(i32 noundef %35, i32 noundef %37, ptr noundef %38)
  call void @llvm.lifetime.end.p0(i64 8, ptr %5) #19
  br label %109

39:                                               ; preds = %2
  %40 = getelementptr inbounds nuw %"struct.faiss::LinearTransform", ptr %9, i32 0, i32 4
  %41 = getelementptr inbounds nuw %"struct.faiss::VectorTransform", ptr %9, i32 0, i32 2
  %42 = load i32, ptr %41, align 4, !tbaa !28
  %43 = getelementptr inbounds nuw %"struct.faiss::VectorTransform", ptr %9, i32 0, i32 2
  %44 = load i32, ptr %43, align 4, !tbaa !28
  %45 = mul nsw i32 %42, %44
  %46 = sext i32 %45 to i64
  call void @_ZNSt6vectorIfSaIfEE6resizeEm(ptr noundef nonnull align 8 dereferenceable(24) %40, i64 noundef %46)
  call void @llvm.lifetime.start.p0(i64 8, ptr %6) #19
  %47 = getelementptr inbounds nuw %"struct.faiss::LinearTransform", ptr %9, i32 0, i32 4
  %48 = call noundef ptr @_ZNSt6vectorIfSaIfEE4dataEv(ptr noundef nonnull align 8 dereferenceable(24) %47) #19
  store ptr %48, ptr %6, align 8, !tbaa !11
  %49 = load ptr, ptr %6, align 8, !tbaa !11
  %50 = getelementptr inbounds nuw %"struct.faiss::VectorTransform", ptr %9, i32 0, i32 2
  %51 = load i32, ptr %50, align 4, !tbaa !28
  %52 = getelementptr inbounds nuw %"struct.faiss::VectorTransform", ptr %9, i32 0, i32 2
  %53 = load i32, ptr %52, align 4, !tbaa !28
  %54 = mul nsw i32 %51, %53
  %55 = sext i32 %54 to i64
  %56 = load i32, ptr %4, align 4, !tbaa !21
  %57 = sext i32 %56 to i64
  call void @_ZN5faiss11float_randnEPfml(ptr noundef %49, i64 noundef %55, i64 noundef %57)
  %58 = getelementptr inbounds nuw %"struct.faiss::VectorTransform", ptr %9, i32 0, i32 2
  %59 = load i32, ptr %58, align 4, !tbaa !28
  %60 = getelementptr inbounds nuw %"struct.faiss::VectorTransform", ptr %9, i32 0, i32 2
  %61 = load i32, ptr %60, align 4, !tbaa !28
  %62 = load ptr, ptr %6, align 8, !tbaa !11
  call void @_ZN5faiss9matrix_qrEiiPf(i32 noundef %59, i32 noundef %61, ptr noundef %62)
  call void @llvm.lifetime.start.p0(i64 4, ptr %7) #19
  call void @llvm.lifetime.start.p0(i64 4, ptr %8) #19
  store i32 0, ptr %7, align 4, !tbaa !21
  br label %63

63:                                               ; preds = %98, %39
  %64 = load i32, ptr %7, align 4, !tbaa !21
  %65 = getelementptr inbounds nuw %"struct.faiss::VectorTransform", ptr %9, i32 0, i32 2
  %66 = load i32, ptr %65, align 4, !tbaa !28
  %67 = icmp slt i32 %64, %66
  br i1 %67, label %68, label %101

68:                                               ; preds = %63
  store i32 0, ptr %8, align 4, !tbaa !21
  br label %69

69:                                               ; preds = %94, %68
  %70 = load i32, ptr %8, align 4, !tbaa !21
  %71 = getelementptr inbounds nuw %"struct.faiss::VectorTransform", ptr %9, i32 0, i32 1
  %72 = load i32, ptr %71, align 8, !tbaa !34
  %73 = icmp slt i32 %70, %72
  br i1 %73, label %74, label %97

74:                                               ; preds = %69
  %75 = load ptr, ptr %6, align 8, !tbaa !11
  %76 = load i32, ptr %7, align 4, !tbaa !21
  %77 = getelementptr inbounds nuw %"struct.faiss::VectorTransform", ptr %9, i32 0, i32 2
  %78 = load i32, ptr %77, align 4, !tbaa !28
  %79 = mul nsw i32 %76, %78
  %80 = load i32, ptr %8, align 4, !tbaa !21
  %81 = add nsw i32 %79, %80
  %82 = sext i32 %81 to i64
  %83 = getelementptr inbounds float, ptr %75, i64 %82
  %84 = load float, ptr %83, align 4, !tbaa !29
  %85 = load ptr, ptr %6, align 8, !tbaa !11
  %86 = load i32, ptr %7, align 4, !tbaa !21
  %87 = getelementptr inbounds nuw %"struct.faiss::VectorTransform", ptr %9, i32 0, i32 1
  %88 = load i32, ptr %87, align 8, !tbaa !34
  %89 = mul nsw i32 %86, %88
  %90 = load i32, ptr %8, align 4, !tbaa !21
  %91 = add nsw i32 %89, %90
  %92 = sext i32 %91 to i64
  %93 = getelementptr inbounds float, ptr %85, i64 %92
  store float %84, ptr %93, align 4, !tbaa !29
  br label %94

94:                                               ; preds = %74
  %95 = load i32, ptr %8, align 4, !tbaa !21
  %96 = add nsw i32 %95, 1
  store i32 %96, ptr %8, align 4, !tbaa !21
  br label %69, !llvm.loop !206

97:                                               ; preds = %69
  br label %98

98:                                               ; preds = %97
  %99 = load i32, ptr %7, align 4, !tbaa !21
  %100 = add nsw i32 %99, 1
  store i32 %100, ptr %7, align 4, !tbaa !21
  br label %63, !llvm.loop !207

101:                                              ; preds = %63
  %102 = getelementptr inbounds nuw %"struct.faiss::LinearTransform", ptr %9, i32 0, i32 4
  %103 = getelementptr inbounds nuw %"struct.faiss::VectorTransform", ptr %9, i32 0, i32 1
  %104 = load i32, ptr %103, align 8, !tbaa !34
  %105 = getelementptr inbounds nuw %"struct.faiss::VectorTransform", ptr %9, i32 0, i32 2
  %106 = load i32, ptr %105, align 4, !tbaa !28
  %107 = mul nsw i32 %104, %106
  %108 = sext i32 %107 to i64
  call void @_ZNSt6vectorIfSaIfEE6resizeEm(ptr noundef nonnull align 8 dereferenceable(24) %102, i64 noundef %108)
  call void @llvm.lifetime.end.p0(i64 4, ptr %8) #19
  call void @llvm.lifetime.end.p0(i64 4, ptr %7) #19
  call void @llvm.lifetime.end.p0(i64 8, ptr %6) #19
  br label %109

109:                                              ; preds = %101, %15
  %110 = getelementptr inbounds nuw %"struct.faiss::LinearTransform", ptr %9, i32 0, i32 2
  store i8 1, ptr %110, align 2, !tbaa !35
  %111 = getelementptr inbounds nuw %"struct.faiss::VectorTransform", ptr %9, i32 0, i32 3
  store i8 1, ptr %111, align 8, !tbaa !15
  ret void
}