; Function Attrs: mustprogress uwtable
define void @_ZN5faiss20RandomRotationMatrix4initEi(ptr noundef nonnull align 8 dereferenceable(73) %0, i32 noundef %1) local_unnamed_addr #3 align 2 personality ptr @__gxx_personality_v0 {
  %3 = getelementptr inbounds nuw i8, ptr %0, i64 12
  %4 = load i32, ptr %3, align 4, !tbaa !29
  %5 = getelementptr inbounds nuw i8, ptr %0, i64 8
  %6 = load i32, ptr %5, align 8, !tbaa !37
  %.not = icmp sgt i32 %4, %6
  %7 = getelementptr inbounds nuw i8, ptr %0, i64 24
  %8 = getelementptr inbounds nuw i8, ptr %0, i64 32
  %9 = load ptr, ptr %8, align 8, !tbaa !30
  %10 = load ptr, ptr %7, align 8, !tbaa !31
  %11 = ptrtoint ptr %9 to i64
  %12 = ptrtoint ptr %10 to i64
  %13 = sub i64 %11, %12
  %14 = ashr exact i64 %13, 2
  br i1 %.not, label %30, label %15

15:                                               ; preds = %2
  %16 = mul nsw i32 %6, %4
  %17 = sext i32 %16 to i64
  %18 = icmp ult i64 %14, %17
  br i1 %18, label %19, label %21

19:                                               ; preds = %15
  %20 = sub nuw nsw i64 %17, %14
  tail call void @_ZNSt6vectorIfSaIfEE17_M_default_appendEm(ptr noundef nonnull align 8 dereferenceable(24) %7, i64 noundef %20)
  %.pre = load ptr, ptr %7, align 8, !tbaa !31
  %.pre36 = load i32, ptr %3, align 4, !tbaa !29
  %.pre37 = load i32, ptr %5, align 8, !tbaa !37
  %.pre44 = mul nsw i32 %.pre37, %.pre36
  %.pre46 = sext i32 %.pre44 to i64
  br label %_ZNSt6vectorIfSaIfEE6resizeEm.exit

21:                                               ; preds = %15
  %22 = icmp ugt i64 %14, %17
  br i1 %22, label %23, label %_ZNSt6vectorIfSaIfEE6resizeEm.exit

23:                                               ; preds = %21
  %24 = getelementptr inbounds nuw float, ptr %10, i64 %17
  %.not.i.i = icmp eq ptr %9, %24
  br i1 %.not.i.i, label %_ZNSt6vectorIfSaIfEE6resizeEm.exit, label %25

25:                                               ; preds = %23
  store ptr %24, ptr %8, align 8, !tbaa !30
  br label %_ZNSt6vectorIfSaIfEE6resizeEm.exit

_ZNSt6vectorIfSaIfEE6resizeEm.exit:               ; preds = %19, %21, %23, %25
  %.pre-phi47 = phi i64 [ %.pre46, %19 ], [ %17, %21 ], [ %17, %23 ], [ %17, %25 ]
  %26 = phi ptr [ %.pre, %19 ], [ %10, %21 ], [ %10, %23 ], [ %10, %25 ]
  %27 = sext i32 %1 to i64
  tail call void @_ZN5faiss11float_randnEPfml(ptr noundef %26, i64 noundef %.pre-phi47, i64 noundef %27)
  %28 = load i32, ptr %5, align 8, !tbaa !37
  %29 = load i32, ptr %3, align 4, !tbaa !29
  tail call void @_ZN5faiss9matrix_qrEiiPf(i32 noundef %28, i32 noundef %29, ptr noundef %26)
  br label %_ZNSt6vectorIfSaIfEE6resizeEm.exit24

30:                                               ; preds = %2
  %31 = mul nsw i32 %4, %4
  %32 = zext nneg i32 %31 to i64
  %33 = icmp ult i64 %14, %32
  br i1 %33, label %34, label %36

34:                                               ; preds = %30
  %35 = sub nuw nsw i64 %32, %14
  tail call void @_ZNSt6vectorIfSaIfEE17_M_default_appendEm(ptr noundef nonnull align 8 dereferenceable(24) %7, i64 noundef %35)
  %.pre38 = load ptr, ptr %7, align 8, !tbaa !31
  %.pre39 = load i32, ptr %3, align 4, !tbaa !29
  %.pre41 = mul nsw i32 %.pre39, %.pre39
  %.pre42 = zext nneg i32 %.pre41 to i64
  br label %_ZNSt6vectorIfSaIfEE6resizeEm.exit22

36:                                               ; preds = %30
  %37 = icmp ugt i64 %14, %32
  br i1 %37, label %38, label %_ZNSt6vectorIfSaIfEE6resizeEm.exit22

38:                                               ; preds = %36
  %39 = getelementptr inbounds nuw float, ptr %10, i64 %32
  %.not.i.i21 = icmp eq ptr %9, %39
  br i1 %.not.i.i21, label %_ZNSt6vectorIfSaIfEE6resizeEm.exit22, label %40

40:                                               ; preds = %38
  store ptr %39, ptr %8, align 8, !tbaa !30
  br label %_ZNSt6vectorIfSaIfEE6resizeEm.exit22

_ZNSt6vectorIfSaIfEE6resizeEm.exit22:             ; preds = %34, %36, %38, %40
  %.pre-phi43 = phi i64 [ %.pre42, %34 ], [ %32, %36 ], [ %32, %38 ], [ %32, %40 ]
  %41 = phi ptr [ %.pre38, %34 ], [ %10, %36 ], [ %10, %38 ], [ %10, %40 ]
  %42 = sext i32 %1 to i64
  tail call void @_ZN5faiss11float_randnEPfml(ptr noundef %41, i64 noundef %.pre-phi43, i64 noundef %42)
  %43 = load i32, ptr %3, align 4, !tbaa !29
  tail call void @_ZN5faiss9matrix_qrEiiPf(i32 noundef %43, i32 noundef %43, ptr noundef %41)
  %44 = load i32, ptr %3, align 4, !tbaa !29
  %45 = icmp sgt i32 %44, 0
  %.pre40 = load i32, ptr %5, align 8, !tbaa !37
  %46 = icmp sgt i32 %.pre40, 0
  %or.cond = select i1 %45, i1 %46, i1 false
  br i1 %or.cond, label %.preheader.us.preheader, label %._crit_edge27

.preheader.us.preheader:                          ; preds = %_ZNSt6vectorIfSaIfEE6resizeEm.exit22
  %47 = zext nneg i32 %44 to i64
  %48 = zext nneg i32 %.pre40 to i64
  br label %.preheader.us

.preheader.us:                                    ; preds = %.preheader.us.preheader, %._crit_edge.us
  %indvars.iv31 = phi i64 [ 0, %.preheader.us.preheader ], [ %indvars.iv.next32, %._crit_edge.us ]
  %49 = mul nuw nsw i64 %indvars.iv31, %47
  %50 = mul nuw nsw i64 %indvars.iv31, %48
  %invariant.gep = getelementptr inbounds nuw float, ptr %41, i64 %49
  %51 = getelementptr inbounds nuw float, ptr %41, i64 %50
  br label %52

52:                                               ; preds = %.preheader.us, %52
  %indvars.iv = phi i64 [ 0, %.preheader.us ], [ %indvars.iv.next, %52 ]
  %gep = getelementptr inbounds nuw float, ptr %invariant.gep, i64 %indvars.iv
  %53 = load float, ptr %gep, align 4, !tbaa !32
  %54 = getelementptr inbounds nuw float, ptr %51, i64 %indvars.iv
  store float %53, ptr %54, align 4, !tbaa !32
  %indvars.iv.next = add nuw nsw i64 %indvars.iv, 1
  %exitcond.not = icmp eq i64 %indvars.iv.next, %48
  br i1 %exitcond.not, label %._crit_edge.us, label %52, !llvm.loop !147

._crit_edge.us:                                   ; preds = %52
  %indvars.iv.next32 = add nuw nsw i64 %indvars.iv31, 1
  %exitcond35.not = icmp eq i64 %indvars.iv.next32, %47
  br i1 %exitcond35.not, label %._crit_edge27, label %.preheader.us, !llvm.loop !148

._crit_edge27:                                    ; preds = %._crit_edge.us, %_ZNSt6vectorIfSaIfEE6resizeEm.exit22
  %55 = mul nsw i32 %.pre40, %44
  %56 = sext i32 %55 to i64
  %57 = load ptr, ptr %8, align 8, !tbaa !30
  %58 = load ptr, ptr %7, align 8, !tbaa !31
  %59 = ptrtoint ptr %57 to i64
  %60 = ptrtoint ptr %58 to i64
  %61 = sub i64 %59, %60
  %62 = ashr exact i64 %61, 2
  %63 = icmp ult i64 %62, %56
  br i1 %63, label %64, label %66

64:                                               ; preds = %._crit_edge27
  %65 = sub nuw nsw i64 %56, %62
  tail call void @_ZNSt6vectorIfSaIfEE17_M_default_appendEm(ptr noundef nonnull align 8 dereferenceable(24) %7, i64 noundef %65)
  br label %_ZNSt6vectorIfSaIfEE6resizeEm.exit24

66:                                               ; preds = %._crit_edge27
  %67 = icmp ugt i64 %62, %56
  br i1 %67, label %68, label %_ZNSt6vectorIfSaIfEE6resizeEm.exit24

68:                                               ; preds = %66
  %69 = getelementptr inbounds nuw float, ptr %58, i64 %56
  %.not.i.i23 = icmp eq ptr %57, %69
  br i1 %.not.i.i23, label %_ZNSt6vectorIfSaIfEE6resizeEm.exit24, label %70

70:                                               ; preds = %68
  store ptr %69, ptr %8, align 8, !tbaa !30
  br label %_ZNSt6vectorIfSaIfEE6resizeEm.exit24

_ZNSt6vectorIfSaIfEE6resizeEm.exit24:             ; preds = %70, %68, %66, %64, %_ZNSt6vectorIfSaIfEE6resizeEm.exit
  %71 = getelementptr inbounds nuw i8, ptr %0, i64 18
  store i8 1, ptr %71, align 2, !tbaa !39
  %72 = getelementptr inbounds nuw i8, ptr %0, i64 16
  store i8 1, ptr %72, align 8, !tbaa !16
  ret void
}